target datalayout = "e-m:e-p270:32:32-p271:32:32-p272:64:64-i64:64-i128:128-f80:128-n8:16:32:64-S128"
target triple = "x86_64-pc-linux-gnu"

%struct.b2HashSet = type { ptr, i32, i32 }
%struct.b2IntArray = type { ptr, i32, i32 }
%struct.b2DynamicTree = type { ptr, i32, i32, i32, i32, i32, ptr, ptr, ptr, ptr, i32 }
%struct.b2BroadPhase = type { [3 x %struct.b2DynamicTree], i32, %struct.b2HashSet, %struct.b2IntArray, ptr, ptr, i32, %struct.b2AtomicInt, %struct.b2HashSet }
%struct.b2AtomicInt = type { i32 }

; Function Attrs: nounwind uwtable
define hidden void @b2DestroyBroadPhase(ptr noundef %0) #0 {
  %2 = alloca ptr, align 8
  %3 = alloca i32, align 4
  store ptr %0, ptr %2, align 8, !tbaa !3
  call void @llvm.lifetime.start.p0(i64 4, ptr %3) #8
  store i32 0, ptr %3, align 4, !tbaa !20
  br label %4

4:                                                ; preds = %15, %1
  %5 = load i32, ptr %3, align 4, !tbaa !20
  %6 = icmp slt i32 %5, 3
  br i1 %6, label %8, label %7

7:                                                ; preds = %4
  call void @llvm.lifetime.end.p0(i64 4, ptr %3) #8
  br label %18

8:                                                ; preds = %4
  %9 = load ptr, ptr %2, align 8, !tbaa !3
  %10 = getelementptr inbounds nuw %struct.b2BroadPhase, ptr %9, i32 0, i32 0
  %11 = getelementptr inbounds [3 x %struct.b2DynamicTree], ptr %10, i64 0, i64 0
  %12 = load i32, ptr %3, align 4, !tbaa !20
  %13 = sext i32 %12 to i64
  %14 = getelementptr inbounds %struct.b2DynamicTree, ptr %11, i64 %13
  call void @b2DynamicTree_Destroy(ptr noundef %14)
  br label %15

15:                                               ; preds = %8
  %16 = load i32, ptr %3, align 4, !tbaa !20
  %17 = add nsw i32 %16, 1
  store i32 %17, ptr %3, align 4, !tbaa !20
  br label %4, !llvm.loop !37

18:                                               ; preds = %7
  %19 = load ptr, ptr %2, align 8, !tbaa !3
  %20 = getelementptr inbounds nuw %struct.b2BroadPhase, ptr %19, i32 0, i32 2
  call void @b2DestroySet(ptr noundef %20)
  %21 = load ptr, ptr %2, align 8, !tbaa !3
  %22 = getelementptr inbounds nuw %struct.b2BroadPhase, ptr %21, i32 0, i32 3
  call void @b2IntArray_Destroy(ptr noundef %22)
  %23 = load ptr, ptr %2, align 8, !tbaa !3
  %24 = getelementptr inbounds nuw %struct.b2BroadPhase, ptr %23, i32 0, i32 8
  call void @b2DestroySet(ptr noundef %24)
  %25 = load ptr, ptr %2, align 8, !tbaa !3
  call void @llvm.memset.p0.i64(ptr align 8 %25, i8 0, i64 296, i1 false)
  ret void
}