; Function Attrs: nounwind uwtable
define hidden void @b2DestroyBroadPhase(ptr noundef %0) local_unnamed_addr #0 {
  br label %6

2:                                                ; preds = %6
  %3 = getelementptr inbounds nuw i8, ptr %0, i64 224
  tail call void @b2DestroySet(ptr noundef nonnull %3) #8
  %4 = getelementptr inbounds nuw i8, ptr %0, i64 240
  tail call void @b2IntArray_Destroy(ptr noundef nonnull %4) #8
  %5 = getelementptr inbounds nuw i8, ptr %0, i64 280
  tail call void @b2DestroySet(ptr noundef nonnull %5) #8
  tail call void @llvm.memset.p0.i64(ptr noundef nonnull align 8 dereferenceable(296) %0, i8 0, i64 296, i1 false)
  ret void

6:                                                ; preds = %1, %6
  %indvars.iv = phi i64 [ 0, %1 ], [ %indvars.iv.next, %6 ]
  %7 = getelementptr inbounds nuw %struct.b2DynamicTree, ptr %0, i64 %indvars.iv
  tail call void @b2DynamicTree_Destroy(ptr noundef %7) #8
  %indvars.iv.next = add nuw nsw i64 %indvars.iv, 1
  %exitcond.not = icmp eq i64 %indvars.iv.next, 3
  br i1 %exitcond.not, label %2, label %6, !llvm.loop !28
}